; Function Attrs: mustprogress uwtable
define noundef zeroext i1 @_ZN7Imf_3_413isOpenExrFileEPKcRb(ptr noundef %0, ptr noundef nonnull writeonly align 1 captures(none) dereferenceable(1) initializes((0, 1)) %1) local_unnamed_addr #3 {
  %3 = alloca i8, align 1
  %4 = alloca i8, align 1
  call void @llvm.lifetime.start.p0(i64 1, ptr nonnull %3) #8
  call void @llvm.lifetime.start.p0(i64 1, ptr nonnull %4) #8
  %5 = call noundef zeroext i1 @_ZN7Imf_3_413isOpenExrFileEPKcRbS2_S2_(ptr noundef %0, ptr noundef nonnull align 1 dereferenceable(1) %1, ptr noundef nonnull align 1 dereferenceable(1) %3, ptr noundef nonnull align 1 dereferenceable(1) %4)
  call void @llvm.lifetime.end.p0(i64 1, ptr nonnull %4) #8
  call void @llvm.lifetime.end.p0(i64 1, ptr nonnull %3) #8
  ret i1 %5
}